target datalayout = "e-m:e-p270:32:32-p271:32:32-p272:64:64-i64:64-i128:128-f80:128-n8:16:32:64-S128"
target triple = "x86_64-pc-linux-gnu"

%struct.form_data_tag = type { ptr, i64 }

; Function Attrs: nounwind uwtable
define void @html_form_data_tag_free(ptr noundef %0) #0 {
  %2 = alloca ptr, align 8
  %3 = alloca i64, align 8
  store ptr %0, ptr %2, align 8, !tbaa !21
  call void @llvm.lifetime.start.p0(i64 8, ptr %3) #12
  store i64 0, ptr %3, align 8, !tbaa !28
  br label %4

4:                                                ; preds = %34, %1
  %5 = load i64, ptr %3, align 8, !tbaa !28
  %6 = load ptr, ptr %2, align 8, !tbaa !21
  %7 = getelementptr inbounds nuw %struct.form_data_tag, ptr %6, i32 0, i32 1
  %8 = load i64, ptr %7, align 8, !tbaa !25
  %9 = icmp ult i64 %5, %8
  br i1 %9, label %10, label %37

10:                                               ; preds = %4
  br label %11

11:                                               ; preds = %10
  %12 = load ptr, ptr %2, align 8, !tbaa !21
  %13 = getelementptr inbounds nuw %struct.form_data_tag, ptr %12, i32 0, i32 0
  %14 = load ptr, ptr %13, align 8, !tbaa !29
  %15 = load i64, ptr %3, align 8, !tbaa !28
  %16 = getelementptr inbounds nuw ptr, ptr %14, i64 %15
  %17 = load ptr, ptr %16, align 8, !tbaa !8
  %18 = icmp ne ptr null, %17
  br i1 %18, label %19, label %31

19:                                               ; preds = %11
  %20 = load ptr, ptr %2, align 8, !tbaa !21
  %21 = getelementptr inbounds nuw %struct.form_data_tag, ptr %20, i32 0, i32 0
  %22 = load ptr, ptr %21, align 8, !tbaa !29
  %23 = load i64, ptr %3, align 8, !tbaa !28
  %24 = getelementptr inbounds nuw ptr, ptr %22, i64 %23
  %25 = load ptr, ptr %24, align 8, !tbaa !8
  call void @free(ptr noundef %25) #12
  %26 = load ptr, ptr %2, align 8, !tbaa !21
  %27 = getelementptr inbounds nuw %struct.form_data_tag, ptr %26, i32 0, i32 0
  %28 = load ptr, ptr %27, align 8, !tbaa !29
  %29 = load i64, ptr %3, align 8, !tbaa !28
  %30 = getelementptr inbounds nuw ptr, ptr %28, i64 %29
  store ptr null, ptr %30, align 8, !tbaa !8
  br label %31

31:                                               ; preds = %19, %11
  br label %32

32:                                               ; preds = %31
  br label %33

33:                                               ; preds = %32
  br label %34

34:                                               ; preds = %33
  %35 = load i64, ptr %3, align 8, !tbaa !28
  %36 = add i64 %35, 1
  store i64 %36, ptr %3, align 8, !tbaa !28
  br label %4

37:                                               ; preds = %4
  br label %38

38:                                               ; preds = %37
  %39 = load ptr, ptr %2, align 8, !tbaa !21
  %40 = getelementptr inbounds nuw %struct.form_data_tag, ptr %39, i32 0, i32 0
  %41 = load ptr, ptr %40, align 8, !tbaa !29
  %42 = icmp ne ptr null, %41
  br i1 %42, label %43, label %49

43:                                               ; preds = %38
  %44 = load ptr, ptr %2, align 8, !tbaa !21
  %45 = getelementptr inbounds nuw %struct.form_data_tag, ptr %44, i32 0, i32 0
  %46 = load ptr, ptr %45, align 8, !tbaa !29
  call void @free(ptr noundef %46) #12
  %47 = load ptr, ptr %2, align 8, !tbaa !21
  %48 = getelementptr inbounds nuw %struct.form_data_tag, ptr %47, i32 0, i32 0
  store ptr null, ptr %48, align 8, !tbaa !29
  br label %49

49:                                               ; preds = %43, %38
  br label %50

50:                                               ; preds = %49
  br label %51

51:                                               ; preds = %50
  call void @llvm.lifetime.end.p0(i64 8, ptr %3) #12
  ret void
}