; Function Attrs: nounwind uwtable
define void @html_form_data_tag_free(ptr noundef captures(none) %0) local_unnamed_addr #0 {
  %2 = getelementptr inbounds nuw i8, ptr %0, i64 8
  %3 = load i64, ptr %2, align 8, !tbaa !21
  %.not15 = icmp eq i64 %3, 0
  %.pre17 = load ptr, ptr %0, align 8, !tbaa !24
  br i1 %.not15, label %._crit_edge, label %.lr.ph

.lr.ph:                                           ; preds = %1, %11
  %4 = phi i64 [ %12, %11 ], [ %3, %1 ]
  %5 = phi ptr [ %13, %11 ], [ %.pre17, %1 ]
  %.014 = phi i64 [ %14, %11 ], [ 0, %1 ]
  %6 = getelementptr inbounds nuw ptr, ptr %5, i64 %.014
  %7 = load ptr, ptr %6, align 8, !tbaa !14
  %.not13 = icmp eq ptr %7, null
  br i1 %.not13, label %11, label %8

8:                                                ; preds = %.lr.ph
  tail call void @free(ptr noundef nonnull %7) #17
  %9 = load ptr, ptr %0, align 8, !tbaa !24
  %10 = getelementptr inbounds nuw ptr, ptr %9, i64 %.014
  store ptr null, ptr %10, align 8, !tbaa !14
  %.pre16 = load i64, ptr %2, align 8, !tbaa !21
  br label %11

11:                                               ; preds = %.lr.ph, %8
  %12 = phi i64 [ %4, %.lr.ph ], [ %.pre16, %8 ]
  %13 = phi ptr [ %5, %.lr.ph ], [ %9, %8 ]
  %14 = add nuw i64 %.014, 1
  %15 = icmp ult i64 %14, %12
  br i1 %15, label %.lr.ph, label %._crit_edge.thread

._crit_edge:                                      ; preds = %1
  %.not = icmp eq ptr %.pre17, null
  br i1 %.not, label %17, label %._crit_edge.thread

._crit_edge.thread:                               ; preds = %11, %._crit_edge
  %16 = phi ptr [ %.pre17, %._crit_edge ], [ %13, %11 ]
  tail call void @free(ptr noundef nonnull %16) #17
  store ptr null, ptr %0, align 8, !tbaa !24
  br label %17

17:                                               ; preds = %._crit_edge.thread, %._crit_edge
  ret void
}